target datalayout = "e-m:e-p270:32:32-p271:32:32-p272:64:64-i64:64-i128:128-f80:128-n8:16:32:64-S128"
target triple = "x86_64-pc-linux-gnu"

%struct.Node = type { i32 }
%struct.Expr = type { i32 }
%struct.Aggref = type { %struct.Expr, i32, i32, i32, i32, i32, ptr, ptr, ptr, ptr, ptr, ptr, i8, i8, i8, i8, i32, i32, i32, i32, i32 }
%struct.WindowFunc = type { %struct.Expr, i32, i32, i32, i32, ptr, ptr, ptr, i32, i8, i8, i32 }
%struct.FuncExpr = type { %struct.Expr, i32, i32, i8, i8, i32, i32, i32, ptr, i32 }
%struct.OpExpr = type { %struct.Expr, i32, i32, i32, i8, i32, i32, ptr, i32 }
%struct.MinMaxExpr = type { %struct.Expr, i32, i32, i32, i32, ptr, i32 }
%struct.ScalarArrayOpExpr = type { %struct.Expr, i32, i32, i32, i32, i8, i32, ptr, i32 }

; Function Attrs: nounwind uwtable
define dso_local void @exprSetInputCollation(ptr noundef %0, i32 noundef %1) #0 {
  %3 = alloca ptr, align 8
  %4 = alloca i32, align 4
  store ptr %0, ptr %3, align 8
  store i32 %1, ptr %4, align 4
  %5 = load ptr, ptr %3, align 8
  %6 = getelementptr inbounds nuw %struct.Node, ptr %5, i32 0, i32 0
  %7 = load i32, ptr %6, align 4
  switch i32 %7, label %40 [
    i32 9, label %8
    i32 11, label %12
    i32 15, label %16
    i32 17, label %20
    i32 18, label %24
    i32 19, label %28
    i32 20, label %32
    i32 39, label %36
  ]

8:                                                ; preds = %2
  %9 = load i32, ptr %4, align 4
  %10 = load ptr, ptr %3, align 8
  %11 = getelementptr inbounds nuw %struct.Aggref, ptr %10, i32 0, i32 4
  store i32 %9, ptr %11, align 8
  br label %41

12:                                               ; preds = %2
  %13 = load i32, ptr %4, align 4
  %14 = load ptr, ptr %3, align 8
  %15 = getelementptr inbounds nuw %struct.WindowFunc, ptr %14, i32 0, i32 4
  store i32 %13, ptr %15, align 8
  br label %41

16:                                               ; preds = %2
  %17 = load i32, ptr %4, align 4
  %18 = load ptr, ptr %3, align 8
  %19 = getelementptr inbounds nuw %struct.FuncExpr, ptr %18, i32 0, i32 7
  store i32 %17, ptr %19, align 8
  br label %41

20:                                               ; preds = %2
  %21 = load i32, ptr %4, align 4
  %22 = load ptr, ptr %3, align 8
  %23 = getelementptr inbounds nuw %struct.OpExpr, ptr %22, i32 0, i32 6
  store i32 %21, ptr %23, align 8
  br label %41

24:                                               ; preds = %2
  %25 = load i32, ptr %4, align 4
  %26 = load ptr, ptr %3, align 8
  %27 = getelementptr inbounds nuw %struct.OpExpr, ptr %26, i32 0, i32 6
  store i32 %25, ptr %27, align 8
  br label %41

28:                                               ; preds = %2
  %29 = load i32, ptr %4, align 4
  %30 = load ptr, ptr %3, align 8
  %31 = getelementptr inbounds nuw %struct.OpExpr, ptr %30, i32 0, i32 6
  store i32 %29, ptr %31, align 8
  br label %41

32:                                               ; preds = %2
  %33 = load i32, ptr %4, align 4
  %34 = load ptr, ptr %3, align 8
  %35 = getelementptr inbounds nuw %struct.ScalarArrayOpExpr, ptr %34, i32 0, i32 6
  store i32 %33, ptr %35, align 8
  br label %41

36:                                               ; preds = %2
  %37 = load i32, ptr %4, align 4
  %38 = load ptr, ptr %3, align 8
  %39 = getelementptr inbounds nuw %struct.MinMaxExpr, ptr %38, i32 0, i32 3
  store i32 %37, ptr %39, align 4
  br label %41

40:                                               ; preds = %2
  br label %41

41:                                               ; preds = %40, %36, %32, %28, %24, %20, %16, %12, %8
  ret void
}