; Function Attrs: mustprogress nofree norecurse nosync nounwind willreturn memory(argmem: readwrite) uwtable
define dso_local void @exprSetInputCollation(ptr noundef captures(none) %0, i32 noundef %1) local_unnamed_addr #7 {
  %3 = load i32, ptr %0, align 4
  switch i32 %3, label %20 [
    i32 9, label %4
    i32 11, label %6
    i32 15, label %8
    i32 17, label %10
    i32 18, label %12
    i32 19, label %14
    i32 20, label %16
    i32 39, label %18
  ]

4:                                                ; preds = %2
  %5 = getelementptr inbounds nuw i8, ptr %0, i64 16
  store i32 %1, ptr %5, align 8
  br label %20

6:                                                ; preds = %2
  %7 = getelementptr inbounds nuw i8, ptr %0, i64 16
  store i32 %1, ptr %7, align 8
  br label %20

8:                                                ; preds = %2
  %9 = getelementptr inbounds nuw i8, ptr %0, i64 24
  store i32 %1, ptr %9, align 8
  br label %20

10:                                               ; preds = %2
  %11 = getelementptr inbounds nuw i8, ptr %0, i64 24
  store i32 %1, ptr %11, align 8
  br label %20

12:                                               ; preds = %2
  %13 = getelementptr inbounds nuw i8, ptr %0, i64 24
  store i32 %1, ptr %13, align 8
  br label %20

14:                                               ; preds = %2
  %15 = getelementptr inbounds nuw i8, ptr %0, i64 24
  store i32 %1, ptr %15, align 8
  br label %20

16:                                               ; preds = %2
  %17 = getelementptr inbounds nuw i8, ptr %0, i64 24
  store i32 %1, ptr %17, align 8
  br label %20

18:                                               ; preds = %2
  %19 = getelementptr inbounds nuw i8, ptr %0, i64 12
  store i32 %1, ptr %19, align 4
  br label %20

20:                                               ; preds = %2, %18, %16, %14, %12, %10, %8, %6, %4
  ret void
}